target datalayout = "e-m:e-p270:32:32-p271:32:32-p272:64:64-i64:64-i128:128-f80:128-n8:16:32:64-S128"
target triple = "x86_64-pc-linux-gnu"

%struct.Cnf_Dat_t_ = type { ptr, i32, i32, i32, ptr, ptr, ptr, ptr, ptr, ptr }
%struct.Vec_Int_t_ = type { i32, i32, ptr }
%struct.Gia_Man_t_ = type { ptr, ptr, i32, i32, i32, i32, ptr, ptr, i32, i32, i32, ptr, ptr, %struct.Vec_Int_t_, %struct.Vec_Int_t_, i32, i32, i32, %struct.Vec_Int_t_, ptr, ptr, ptr, i32, i32, i32, i32, ptr, ptr, ptr, ptr, ptr, i32, i32, ptr, i32, ptr, ptr, ptr, ptr, ptr, ptr, ptr, ptr, ptr, ptr, ptr, ptr, ptr, ptr, ptr, ptr, ptr, ptr, %struct.Vec_Int_t_, %struct.Vec_Int_t_, ptr, ptr, ptr, ptr, ptr, ptr, ptr, ptr, ptr, ptr, ptr, ptr, ptr, ptr, ptr, ptr, ptr, ptr, ptr, ptr, ptr, i32, float, float, ptr, ptr, i32, ptr, ptr, ptr, ptr, ptr, ptr, ptr, ptr, ptr, ptr, ptr, ptr, ptr, ptr, ptr, i64, i64, ptr, ptr, i32, i32, i32, i32, i32, i32, i32, i32, i32, i32, i32, i32, ptr, ptr, ptr, ptr, ptr, ptr, ptr, ptr, i32, i32, i32, ptr, i32, i32, ptr, ptr, ptr, ptr, ptr, ptr, i32, i32, ptr, %struct.Vec_Int_t_, %struct.Vec_Int_t_, %struct.Vec_Int_t_, ptr, ptr, ptr, i32, i32, i32, i32, ptr, ptr, ptr, ptr, ptr }

; Function Attrs: inlinehint mustprogress nounwind uwtable
define internal noundef ptr @_ZL21Vec_IntAllocArrayCopyPii(ptr noundef %0, i32 noundef %1) #4 {
  %3 = alloca ptr, align 8
  %4 = alloca i32, align 4
  %5 = alloca ptr, align 8
  store ptr %0, ptr %3, align 8, !tbaa !10
  store i32 %1, ptr %4, align 4, !tbaa !12
  call void @llvm.lifetime.start.p0(i64 8, ptr %5) #15
  %6 = call noalias ptr @malloc(i64 noundef 16) #18
  store ptr %6, ptr %5, align 8, !tbaa !156
  %7 = load i32, ptr %4, align 4, !tbaa !12
  %8 = load ptr, ptr %5, align 8, !tbaa !156
  %9 = getelementptr inbounds nuw %struct.Vec_Int_t_, ptr %8, i32 0, i32 1
  store i32 %7, ptr %9, align 4, !tbaa !159
  %10 = load i32, ptr %4, align 4, !tbaa !12
  %11 = load ptr, ptr %5, align 8, !tbaa !156
  %12 = getelementptr inbounds nuw %struct.Vec_Int_t_, ptr %11, i32 0, i32 0
  store i32 %10, ptr %12, align 8, !tbaa !161
  %13 = load i32, ptr %4, align 4, !tbaa !12
  %14 = sext i32 %13 to i64
  %15 = mul i64 4, %14
  %16 = call noalias ptr @malloc(i64 noundef %15) #18
  %17 = load ptr, ptr %5, align 8, !tbaa !156
  %18 = getelementptr inbounds nuw %struct.Vec_Int_t_, ptr %17, i32 0, i32 2
  store ptr %16, ptr %18, align 8, !tbaa !162
  %19 = load ptr, ptr %5, align 8, !tbaa !156
  %20 = getelementptr inbounds nuw %struct.Vec_Int_t_, ptr %19, i32 0, i32 2
  %21 = load ptr, ptr %20, align 8, !tbaa !162
  %22 = load ptr, ptr %3, align 8, !tbaa !10
  %23 = load i32, ptr %4, align 4, !tbaa !12
  %24 = sext i32 %23 to i64
  %25 = mul i64 4, %24
  call void @llvm.memcpy.p0.p0.i64(ptr align 4 %21, ptr align 4 %22, i64 %25, i1 false)
  %26 = load ptr, ptr %5, align 8, !tbaa !156
  call void @llvm.lifetime.end.p0(i64 8, ptr %5) #15
  ret ptr %26
}

; Function Attrs: inlinehint mustprogress nounwind uwtable
define internal noundef i32 @_ZL13Gia_ManObjNumP10Gia_Man_t_(ptr noundef %0) #4 {
  %2 = alloca ptr, align 8
  store ptr %0, ptr %2, align 8, !tbaa !144
  %3 = load ptr, ptr %2, align 8, !tbaa !144
  %4 = getelementptr inbounds nuw %struct.Gia_Man_t_, ptr %3, i32 0, i32 4
  %5 = load i32, ptr %4, align 8, !tbaa !163
  ret i32 %5
}

; Function Attrs: mustprogress nounwind uwtable
define noundef ptr @_Z22Glucose_SolverFromAig2P10Gia_Man_t_RN6Gluco210SimpSolverE(ptr noundef %0, ptr noundef nonnull align 8 dereferenceable(1684) %1) #0 {
  %3 = alloca ptr, align 8
  %4 = alloca ptr, align 8
  %5 = alloca ptr, align 8
  %6 = alloca i32, align 4
  %7 = alloca ptr, align 8
  store ptr %0, ptr %3, align 8, !tbaa !144
  store ptr %1, ptr %4, align 8, !tbaa !3
  call void @llvm.lifetime.start.p0(i64 8, ptr %5) #15
  %8 = load ptr, ptr %3, align 8, !tbaa !144
  %9 = call ptr @Mf_ManGenerateCnf(ptr noundef %8, i32 noundef 8, i32 noundef 0, i32 noundef 1, i32 noundef 0, i32 noundef 0)
  store ptr %9, ptr %5, align 8, !tbaa !146
  call void @llvm.lifetime.start.p0(i64 4, ptr %6) #15
  store i32 0, ptr %6, align 4, !tbaa !12
  br label %10

10:                                               ; preds = %50, %2
  %11 = load i32, ptr %6, align 4, !tbaa !12
  %12 = load ptr, ptr %5, align 8, !tbaa !146
  %13 = getelementptr inbounds nuw %struct.Cnf_Dat_t_, ptr %12, i32 0, i32 3
  %14 = load i32, ptr %13, align 8, !tbaa !148
  %15 = icmp slt i32 %11, %14
  br i1 %15, label %17, label %16

16:                                               ; preds = %10
  call void @llvm.lifetime.end.p0(i64 4, ptr %6) #15
  br label %53

17:                                               ; preds = %10
  %18 = load ptr, ptr %4, align 8, !tbaa !3
  %19 = load ptr, ptr %5, align 8, !tbaa !146
  %20 = getelementptr inbounds nuw %struct.Cnf_Dat_t_, ptr %19, i32 0, i32 4
  %21 = load ptr, ptr %20, align 8, !tbaa !152
  %22 = load i32, ptr %6, align 4, !tbaa !12
  %23 = sext i32 %22 to i64
  %24 = getelementptr inbounds ptr, ptr %21, i64 %23
  %25 = load ptr, ptr %24, align 8, !tbaa !10
  %26 = load ptr, ptr %5, align 8, !tbaa !146
  %27 = getelementptr inbounds nuw %struct.Cnf_Dat_t_, ptr %26, i32 0, i32 4
  %28 = load ptr, ptr %27, align 8, !tbaa !152
  %29 = load i32, ptr %6, align 4, !tbaa !12
  %30 = add nsw i32 %29, 1
  %31 = sext i32 %30 to i64
  %32 = getelementptr inbounds ptr, ptr %28, i64 %31
  %33 = load ptr, ptr %32, align 8, !tbaa !10
  %34 = load ptr, ptr %5, align 8, !tbaa !146
  %35 = getelementptr inbounds nuw %struct.Cnf_Dat_t_, ptr %34, i32 0, i32 4
  %36 = load ptr, ptr %35, align 8, !tbaa !152
  %37 = load i32, ptr %6, align 4, !tbaa !12
  %38 = sext i32 %37 to i64
  %39 = getelementptr inbounds ptr, ptr %36, i64 %38
  %40 = load ptr, ptr %39, align 8, !tbaa !10
  %41 = ptrtoint ptr %33 to i64
  %42 = ptrtoint ptr %40 to i64
  %43 = sub i64 %41, %42
  %44 = sdiv exact i64 %43, 4
  %45 = trunc i64 %44 to i32
  %46 = call noundef i32 @_Z25glucose2_solver_addclausePN6Gluco210SimpSolverEPii(ptr noundef %18, ptr noundef %25, i32 noundef %45)
  %47 = icmp ne i32 %46, 0
  br i1 %47, label %49, label %48

48:                                               ; preds = %17
  br label %49

49:                                               ; preds = %48, %17
  br label %50

50:                                               ; preds = %49
  %51 = load i32, ptr %6, align 4, !tbaa !12
  %52 = add nsw i32 %51, 1
  store i32 %52, ptr %6, align 4, !tbaa !12
  br label %10, !llvm.loop !177

53:                                               ; preds = %16
  call void @llvm.lifetime.start.p0(i64 8, ptr %7) #15
  %54 = load ptr, ptr %5, align 8, !tbaa !146
  %55 = getelementptr inbounds nuw %struct.Cnf_Dat_t_, ptr %54, i32 0, i32 5
  %56 = load ptr, ptr %55, align 8, !tbaa !155
  %57 = load ptr, ptr %3, align 8, !tbaa !144
  %58 = call noundef i32 @_ZL13Gia_ManObjNumP10Gia_Man_t_(ptr noundef %57)
  %59 = call noundef ptr @_ZL21Vec_IntAllocArrayCopyPii(ptr noundef %56, i32 noundef %58)
  store ptr %59, ptr %7, align 8, !tbaa !156
  %60 = load ptr, ptr %5, align 8, !tbaa !146
  call void @Cnf_DataFree(ptr noundef %60)
  %61 = load ptr, ptr %7, align 8, !tbaa !156
  call void @llvm.lifetime.end.p0(i64 8, ptr %7) #15
  call void @llvm.lifetime.end.p0(i64 8, ptr %5) #15
  ret ptr %61
}