; Function Attrs: mustprogress nounwind uwtable
define noalias noundef ptr @_Z22Glucose_SolverFromAig2P10Gia_Man_t_RN6Gluco210SimpSolverE(ptr noundef %0, ptr noundef nonnull align 8 dereferenceable(1684) %1) local_unnamed_addr #0 {
  %3 = tail call ptr @Mf_ManGenerateCnf(ptr noundef %0, i32 noundef 8, i32 noundef 0, i32 noundef 1, i32 noundef 0, i32 noundef 0) #30
  %4 = getelementptr inbounds nuw i8, ptr %3, i64 16
  %5 = load i32, ptr %4, align 8, !tbaa !127
  %6 = icmp sgt i32 %5, 0
  br i1 %6, label %.lr.ph, label %._crit_edge

.lr.ph:                                           ; preds = %2
  %7 = getelementptr inbounds nuw i8, ptr %3, i64 24
  br label %17

._crit_edge:                                      ; preds = %17, %2
  %8 = getelementptr inbounds nuw i8, ptr %3, i64 32
  %9 = load ptr, ptr %8, align 8, !tbaa !132
  %10 = getelementptr i8, ptr %0, i64 24
  %.val = load i32, ptr %10, align 8, !tbaa !133
  %11 = tail call noalias dereferenceable_or_null(16) ptr @malloc(i64 noundef 16) #33
  %12 = getelementptr inbounds nuw i8, ptr %11, i64 4
  store i32 %.val, ptr %12, align 4, !tbaa !149
  store i32 %.val, ptr %11, align 8, !tbaa !150
  %13 = sext i32 %.val to i64
  %14 = shl nsw i64 %13, 2
  %15 = tail call noalias ptr @malloc(i64 noundef %14) #33
  %16 = getelementptr inbounds nuw i8, ptr %11, i64 8
  store ptr %15, ptr %16, align 8, !tbaa !151
  tail call void @llvm.memcpy.p0.p0.i64(ptr align 4 %15, ptr readonly align 4 %9, i64 %14, i1 false)
  tail call void @Cnf_DataFree(ptr noundef nonnull %3) #30
  ret ptr %11

17:                                               ; preds = %.lr.ph, %17
  %indvars.iv = phi i64 [ 0, %.lr.ph ], [ %indvars.iv.next, %17 ]
  %18 = load ptr, ptr %7, align 8, !tbaa !154
  %19 = getelementptr inbounds nuw ptr, ptr %18, i64 %indvars.iv
  %20 = load ptr, ptr %19, align 8, !tbaa !69
  %indvars.iv.next = add nuw nsw i64 %indvars.iv, 1
  %21 = getelementptr inbounds nuw ptr, ptr %18, i64 %indvars.iv.next
  %22 = load ptr, ptr %21, align 8, !tbaa !69
  %23 = ptrtoint ptr %22 to i64
  %24 = ptrtoint ptr %20 to i64
  %25 = sub i64 %23, %24
  %26 = lshr exact i64 %25, 2
  %27 = trunc i64 %26 to i32
  %28 = tail call noundef i32 @_Z25glucose2_solver_addclausePN6Gluco210SimpSolverEPii(ptr noundef nonnull %1, ptr noundef %20, i32 noundef %27)
  %29 = load i32, ptr %4, align 8, !tbaa !127
  %30 = sext i32 %29 to i64
  %31 = icmp slt i64 %indvars.iv.next, %30
  br i1 %31, label %17, label %._crit_edge, !llvm.loop !157
}